target datalayout = "e-m:e-p270:32:32-p271:32:32-p272:64:64-i64:64-i128:128-f80:128-n8:16:32:64-S128"
target triple = "x86_64-pc-linux-gnu"

%struct.mi_heap_s = type { ptr, ptr, i64, i32, i64, [2 x i64], %struct.mi_random_cxt_s, i64, i64, i64, ptr, i8, i8, [129 x ptr], [75 x %struct.mi_page_queue_s] }
%struct.mi_random_cxt_s = type { [16 x i32], [16 x i32], i32, i8 }
%struct.mi_page_queue_s = type { ptr, ptr, i64 }
%struct.mi_page_s = type { i8, i8, i16, i16, %union.mi_page_flags_s, i8, ptr, ptr, i16, i8, i8, i64, ptr, i64, i64, ptr, ptr }
%union.mi_page_flags_s = type { i8 }
%struct.mi_segment_s = type { %struct.mi_memid_s, i8, i8, i64, ptr, ptr, ptr, i8, i8, i64, i64, i64, i64, i64, i64, ptr, ptr, i64, i64, i32, [1 x %struct.mi_page_s] }
%struct.mi_memid_s = type { %union.anon, i8, i8, i8, i32 }
%union.anon = type { %struct.mi_memid_os_info }
%struct.mi_memid_os_info = type { ptr, i64 }
%struct.mi_segments_tld_s = type { %struct.mi_segment_queue_s, %struct.mi_segment_queue_s, %struct.mi_page_queue_s, i64, i64, i64, i64, i64, ptr, ptr }
%struct.mi_segment_queue_s = type { ptr, ptr }

; Function Attrs: nounwind uwtable
define internal ptr @mi_segment_page_alloc_in(ptr noundef %0, ptr noundef %1) #0 {
  %3 = alloca ptr, align 8
  %4 = alloca ptr, align 8
  store ptr %0, ptr %3, align 8, !tbaa !3
  store ptr %1, ptr %4, align 8, !tbaa !28
  %5 = load ptr, ptr %3, align 8, !tbaa !3
  %6 = load ptr, ptr %4, align 8, !tbaa !28
  %7 = call ptr @mi_segment_find_free(ptr noundef %5, ptr noundef %6) #8
  ret ptr %7
}

; Function Attrs: nounwind uwtable
define internal zeroext i1 @mi_segment_has_free(ptr noundef %0) #0 {
  %2 = alloca ptr, align 8
  store ptr %0, ptr %2, align 8, !tbaa !3
  %3 = load ptr, ptr %2, align 8, !tbaa !3
  %4 = getelementptr inbounds nuw %struct.mi_segment_s, ptr %3, i32 0, i32 11
  %5 = load i64, ptr %4, align 8, !tbaa !41
  %6 = load ptr, ptr %2, align 8, !tbaa !3
  %7 = getelementptr inbounds nuw %struct.mi_segment_s, ptr %6, i32 0, i32 12
  %8 = load i64, ptr %7, align 8, !tbaa !43
  %9 = icmp ult i64 %5, %8
  ret i1 %9
}

; Function Attrs: nounwind uwtable
define internal ptr @mi_segment_free_queue_of_kind(i32 noundef %0, ptr noundef %1) #0 {
  %3 = alloca ptr, align 8
  %4 = alloca i32, align 4
  %5 = alloca ptr, align 8
  store i32 %0, ptr %4, align 4, !tbaa !83
  store ptr %1, ptr %5, align 8, !tbaa !28
  %6 = load i32, ptr %4, align 4, !tbaa !83
  %7 = icmp eq i32 %6, 0
  br i1 %7, label %8, label %11

8:                                                ; preds = %2
  %9 = load ptr, ptr %5, align 8, !tbaa !28
  %10 = getelementptr inbounds nuw %struct.mi_segments_tld_s, ptr %9, i32 0, i32 0
  store ptr %10, ptr %3, align 8
  br label %18

11:                                               ; preds = %2
  %12 = load i32, ptr %4, align 4, !tbaa !83
  %13 = icmp eq i32 %12, 1
  br i1 %13, label %14, label %17

14:                                               ; preds = %11
  %15 = load ptr, ptr %5, align 8, !tbaa !28
  %16 = getelementptr inbounds nuw %struct.mi_segments_tld_s, ptr %15, i32 0, i32 1
  store ptr %16, ptr %3, align 8
  br label %18

17:                                               ; preds = %11
  store ptr null, ptr %3, align 8
  br label %18

18:                                               ; preds = %17, %14, %8
  %19 = load ptr, ptr %3, align 8
  ret ptr %19
}

; Function Attrs: nounwind uwtable
define internal ptr @mi_segment_page_try_alloc_in_queue(ptr noundef %0, i32 noundef %1, ptr noundef %2) #0 {
  %4 = alloca ptr, align 8
  %5 = alloca ptr, align 8
  %6 = alloca i32, align 4
  %7 = alloca ptr, align 8
  %8 = alloca ptr, align 8
  %9 = alloca ptr, align 8
  %10 = alloca i32, align 4
  store ptr %0, ptr %5, align 8, !tbaa !62
  store i32 %1, ptr %6, align 4, !tbaa !83
  store ptr %2, ptr %7, align 8, !tbaa !28
  call void @llvm.lifetime.start.p0(i64 8, ptr %8) #7
  %11 = load i32, ptr %6, align 4, !tbaa !83
  %12 = load ptr, ptr %7, align 8, !tbaa !28
  %13 = call ptr @mi_segment_free_queue_of_kind(i32 noundef %11, ptr noundef %12) #8
  store ptr %13, ptr %8, align 8, !tbaa !101
  call void @llvm.lifetime.start.p0(i64 8, ptr %9) #7
  %14 = load ptr, ptr %8, align 8, !tbaa !101
  %15 = getelementptr inbounds nuw %struct.mi_segment_queue_s, ptr %14, i32 0, i32 0
  %16 = load ptr, ptr %15, align 8, !tbaa !105
  store ptr %16, ptr %9, align 8, !tbaa !3
  br label %17

17:                                               ; preds = %36, %3
  %18 = load ptr, ptr %9, align 8, !tbaa !3
  %19 = icmp ne ptr %18, null
  br i1 %19, label %21, label %20

20:                                               ; preds = %17
  store i32 2, ptr %10, align 4
  br label %40

21:                                               ; preds = %17
  %22 = load ptr, ptr %9, align 8, !tbaa !3
  %23 = getelementptr inbounds nuw %struct.mi_segment_s, ptr %22, i32 0, i32 0
  %24 = load ptr, ptr %5, align 8, !tbaa !62
  %25 = getelementptr inbounds nuw %struct.mi_heap_s, ptr %24, i32 0, i32 3
  %26 = load i32, ptr %25, align 8, !tbaa !89
  %27 = call zeroext i1 @_mi_arena_memid_is_suitable(ptr noundef byval(%struct.mi_memid_s) align 8 %23, i32 noundef %26) #8
  br i1 %27, label %28, label %35

28:                                               ; preds = %21
  %29 = load ptr, ptr %9, align 8, !tbaa !3
  %30 = call zeroext i1 @mi_segment_has_free(ptr noundef %29) #8
  br i1 %30, label %31, label %35

31:                                               ; preds = %28
  %32 = load ptr, ptr %9, align 8, !tbaa !3
  %33 = load ptr, ptr %7, align 8, !tbaa !28
  %34 = call ptr @mi_segment_page_alloc_in(ptr noundef %32, ptr noundef %33) #8
  store ptr %34, ptr %4, align 8
  store i32 1, ptr %10, align 4
  br label %40

35:                                               ; preds = %28, %21
  br label %36

36:                                               ; preds = %35
  %37 = load ptr, ptr %9, align 8, !tbaa !3
  %38 = getelementptr inbounds nuw %struct.mi_segment_s, ptr %37, i32 0, i32 5
  %39 = load ptr, ptr %38, align 8, !tbaa !103
  store ptr %39, ptr %9, align 8, !tbaa !3
  br label %17, !llvm.loop !123

40:                                               ; preds = %31, %20
  call void @llvm.lifetime.end.p0(i64 8, ptr %9) #7
  %41 = load i32, ptr %10, align 4
  switch i32 %41, label %43 [
    i32 2, label %42
  ]

42:                                               ; preds = %40
  store ptr null, ptr %4, align 8
  store i32 1, ptr %10, align 4
  br label %43

43:                                               ; preds = %42, %40
  call void @llvm.lifetime.end.p0(i64 8, ptr %8) #7
  %44 = load ptr, ptr %4, align 8
  ret ptr %44
}

; Function Attrs: nounwind uwtable
define internal ptr @mi_segment_page_alloc(ptr noundef %0, i64 noundef %1, i32 noundef %2, i64 noundef %3, ptr noundef %4) #0 {
  %6 = alloca ptr, align 8
  %7 = alloca ptr, align 8
  %8 = alloca i64, align 8
  %9 = alloca i32, align 4
  %10 = alloca i64, align 8
  %11 = alloca ptr, align 8
  %12 = alloca ptr, align 8
  %13 = alloca ptr, align 8
  %14 = alloca i32, align 4
  store ptr %0, ptr %7, align 8, !tbaa !62
  store i64 %1, ptr %8, align 8, !tbaa !14
  store i32 %2, ptr %9, align 4, !tbaa !83
  store i64 %3, ptr %10, align 8, !tbaa !14
  store ptr %4, ptr %11, align 8, !tbaa !28
  call void @llvm.lifetime.start.p0(i64 8, ptr %12) #7
  %15 = load ptr, ptr %7, align 8, !tbaa !62
  %16 = load i32, ptr %9, align 4, !tbaa !83
  %17 = load ptr, ptr %11, align 8, !tbaa !28
  %18 = call ptr @mi_segment_page_try_alloc_in_queue(ptr noundef %15, i32 noundef %16, ptr noundef %17) #8
  store ptr %18, ptr %12, align 8, !tbaa !8
  %19 = load ptr, ptr %12, align 8, !tbaa !8
  %20 = icmp eq ptr %19, null
  br i1 %20, label %21, label %39

21:                                               ; preds = %5
  call void @llvm.lifetime.start.p0(i64 8, ptr %13) #7
  %22 = load ptr, ptr %7, align 8, !tbaa !62
  %23 = load i64, ptr %8, align 8, !tbaa !14
  %24 = load i32, ptr %9, align 4, !tbaa !83
  %25 = load i64, ptr %10, align 8, !tbaa !14
  %26 = load ptr, ptr %11, align 8, !tbaa !28
  %27 = call ptr @mi_segment_reclaim_or_alloc(ptr noundef %22, i64 noundef %23, i32 noundef %24, i64 noundef %25, ptr noundef %26) #8
  store ptr %27, ptr %13, align 8, !tbaa !3
  %28 = load ptr, ptr %13, align 8, !tbaa !3
  %29 = icmp eq ptr %28, null
  br i1 %29, label %30, label %31

30:                                               ; preds = %21
  store ptr null, ptr %6, align 8
  store i32 1, ptr %14, align 4
  br label %36

31:                                               ; preds = %21
  %32 = load ptr, ptr %7, align 8, !tbaa !62
  %33 = load i32, ptr %9, align 4, !tbaa !83
  %34 = load ptr, ptr %11, align 8, !tbaa !28
  %35 = call ptr @mi_segment_page_try_alloc_in_queue(ptr noundef %32, i32 noundef %33, ptr noundef %34) #8
  store ptr %35, ptr %12, align 8, !tbaa !8
  store i32 0, ptr %14, align 4
  br label %36

36:                                               ; preds = %31, %30
  call void @llvm.lifetime.end.p0(i64 8, ptr %13) #7
  %37 = load i32, ptr %14, align 4
  switch i32 %37, label %41 [
    i32 0, label %38
  ]

38:                                               ; preds = %36
  br label %39

39:                                               ; preds = %38, %5
  %40 = load ptr, ptr %12, align 8, !tbaa !8
  store ptr %40, ptr %6, align 8
  store i32 1, ptr %14, align 4
  br label %41

41:                                               ; preds = %39, %36
  call void @llvm.lifetime.end.p0(i64 8, ptr %12) #7
  %42 = load ptr, ptr %6, align 8
  ret ptr %42
}