; Function Attrs: nounwind uwtable
define internal fastcc ptr @mi_segment_page_alloc(ptr noundef %0, i64 noundef range(i64 0, 65537) %1, i32 noundef range(i32 0, 2) %2, i64 noundef range(i64 16, 20) %3, ptr noundef captures(address_is_null) %4) unnamed_addr #2 {
  %switch.not.not.i = icmp eq i32 %2, 0
  %spec.select14.idx.i = select i1 %switch.not.not.i, i64 0, i64 16
  %spec.select14.i = getelementptr inbounds nuw i8, ptr %4, i64 %spec.select14.idx.i
  %.01116.i = load ptr, ptr %spec.select14.i, align 8, !tbaa !108
  %.not17.i = icmp eq ptr %.01116.i, null
  br i1 %.not17.i, label %mi_segment_page_try_alloc_in_queue.exit.thread, label %.lr.ph.i

.lr.ph.i:                                         ; preds = %5
  %6 = getelementptr inbounds nuw i8, ptr %0, i64 24
  br label %7

7:                                                ; preds = %14, %.lr.ph.i
  %.01118.i = phi ptr [ %.01116.i, %.lr.ph.i ], [ %.011.i, %14 ]
  %8 = load i32, ptr %6, align 8, !tbaa !93
  %9 = tail call zeroext i1 @_mi_arena_memid_is_suitable(ptr noundef nonnull byval(%struct.mi_memid_s) align 8 %.01118.i, i32 noundef %8) #8
  br i1 %9, label %10, label %14

10:                                               ; preds = %7
  %11 = getelementptr i8, ptr %.01118.i, i64 88
  %.011.val.i = load i64, ptr %11, align 8, !tbaa !41
  %12 = getelementptr i8, ptr %.01118.i, i64 96
  %.011.val13.i = load i64, ptr %12, align 8, !tbaa !43
  %13 = icmp ult i64 %.011.val.i, %.011.val13.i
  br i1 %13, label %mi_segment_page_try_alloc_in_queue.exit, label %14

14:                                               ; preds = %10, %7
  %15 = getelementptr inbounds nuw i8, ptr %.01118.i, i64 48
  %.011.i = load ptr, ptr %15, align 8, !tbaa !108
  %.not.i = icmp eq ptr %.011.i, null
  br i1 %.not.i, label %mi_segment_page_try_alloc_in_queue.exit.thread, label %7, !llvm.loop !109

mi_segment_page_try_alloc_in_queue.exit:          ; preds = %10
  %16 = tail call fastcc ptr @mi_segment_find_free(ptr noundef nonnull %.01118.i, ptr noundef %4) #7
  %17 = icmp eq ptr %16, null
  br i1 %17, label %mi_segment_page_try_alloc_in_queue.exit.thread, label %mi_segment_page_try_alloc_in_queue.exit32

mi_segment_page_try_alloc_in_queue.exit.thread:   ; preds = %14, %5, %mi_segment_page_try_alloc_in_queue.exit
  %18 = tail call fastcc ptr @mi_segment_reclaim_or_alloc(ptr noundef %0, i64 noundef %1, i32 noundef %2, i64 noundef %3, ptr noundef %4) #7
  %.not = icmp eq ptr %18, null
  br i1 %.not, label %mi_segment_page_try_alloc_in_queue.exit32, label %19

19:                                               ; preds = %mi_segment_page_try_alloc_in_queue.exit.thread
  %.01116.i23 = load ptr, ptr %spec.select14.i, align 8, !tbaa !108
  %.not17.i24 = icmp eq ptr %.01116.i23, null
  br i1 %.not17.i24, label %mi_segment_page_try_alloc_in_queue.exit32, label %.lr.ph.i25

.lr.ph.i25:                                       ; preds = %19
  %20 = getelementptr inbounds nuw i8, ptr %0, i64 24
  br label %21

21:                                               ; preds = %30, %.lr.ph.i25
  %.01118.i26 = phi ptr [ %.01116.i23, %.lr.ph.i25 ], [ %.011.i27, %30 ]
  %22 = load i32, ptr %20, align 8, !tbaa !93
  %23 = tail call zeroext i1 @_mi_arena_memid_is_suitable(ptr noundef nonnull byval(%struct.mi_memid_s) align 8 %.01118.i26, i32 noundef %22) #8
  br i1 %23, label %24, label %30

24:                                               ; preds = %21
  %25 = getelementptr i8, ptr %.01118.i26, i64 88
  %.011.val.i30 = load i64, ptr %25, align 8, !tbaa !41
  %26 = getelementptr i8, ptr %.01118.i26, i64 96
  %.011.val13.i31 = load i64, ptr %26, align 8, !tbaa !43
  %27 = icmp ult i64 %.011.val.i30, %.011.val13.i31
  br i1 %27, label %28, label %30

28:                                               ; preds = %24
  %29 = tail call fastcc ptr @mi_segment_find_free(ptr noundef nonnull %.01118.i26, ptr noundef %4) #7
  br label %mi_segment_page_try_alloc_in_queue.exit32

30:                                               ; preds = %24, %21
  %31 = getelementptr inbounds nuw i8, ptr %.01118.i26, i64 48
  %.011.i27 = load ptr, ptr %31, align 8, !tbaa !108
  %.not.i28 = icmp eq ptr %.011.i27, null
  br i1 %.not.i28, label %mi_segment_page_try_alloc_in_queue.exit32, label %21, !llvm.loop !109

mi_segment_page_try_alloc_in_queue.exit32:        ; preds = %30, %mi_segment_page_try_alloc_in_queue.exit.thread, %19, %28, %mi_segment_page_try_alloc_in_queue.exit
  %.1 = phi ptr [ %16, %mi_segment_page_try_alloc_in_queue.exit ], [ null, %mi_segment_page_try_alloc_in_queue.exit.thread ], [ %29, %28 ], [ null, %19 ], [ null, %30 ]
  ret ptr %.1
}